target datalayout = "e-m:e-p270:32:32-p271:32:32-p272:64:64-i64:64-i128:128-f80:128-n8:16:32:64-S128"
target triple = "x86_64-pc-linux-gnu"

; Function Attrs: nounwind uwtable
define dso_local ptr @get_binary_op(i32 noundef %0) #0 {
  %2 = alloca ptr, align 8
  %3 = alloca i32, align 4
  store i32 %0, ptr %3, align 4, !tbaa !10
  %4 = load i32, ptr %3, align 4, !tbaa !10
  switch i32 %4, label %25 [
    i32 1, label %5
    i32 2, label %6
    i32 3, label %7
    i32 12, label %8
    i32 4, label %9
    i32 5, label %10
    i32 6, label %11
    i32 7, label %12
    i32 53, label %13
    i32 8, label %13
    i32 16, label %14
    i32 196, label %14
    i32 17, label %15
    i32 18, label %16
    i32 48, label %16
    i32 19, label %17
    i32 20, label %18
    i32 21, label %19
    i32 170, label %20
    i32 9, label %21
    i32 10, label %22
    i32 11, label %23
    i32 15, label %24
  ]

5:                                                ; preds = %1
  store ptr @add_function, ptr %2, align 8
  br label %26

6:                                                ; preds = %1
  store ptr @sub_function, ptr %2, align 8
  br label %26

7:                                                ; preds = %1
  store ptr @mul_function, ptr %2, align 8
  br label %26

8:                                                ; preds = %1
  store ptr @pow_function, ptr %2, align 8
  br label %26

9:                                                ; preds = %1
  store ptr @div_function, ptr %2, align 8
  br label %26

10:                                               ; preds = %1
  store ptr @mod_function, ptr %2, align 8
  br label %26

11:                                               ; preds = %1
  store ptr @shift_left_function, ptr %2, align 8
  br label %26

12:                                               ; preds = %1
  store ptr @shift_right_function, ptr %2, align 8
  br label %26

13:                                               ; preds = %1, %1
  store ptr @concat_function, ptr %2, align 8
  br label %26

14:                                               ; preds = %1, %1
  store ptr @is_identical_function, ptr %2, align 8
  br label %26

15:                                               ; preds = %1
  store ptr @is_not_identical_function, ptr %2, align 8
  br label %26

16:                                               ; preds = %1, %1
  store ptr @is_equal_function, ptr %2, align 8
  br label %26

17:                                               ; preds = %1
  store ptr @is_not_equal_function, ptr %2, align 8
  br label %26

18:                                               ; preds = %1
  store ptr @is_smaller_function, ptr %2, align 8
  br label %26

19:                                               ; preds = %1
  store ptr @is_smaller_or_equal_function, ptr %2, align 8
  br label %26

20:                                               ; preds = %1
  store ptr @compare_function, ptr %2, align 8
  br label %26

21:                                               ; preds = %1
  store ptr @bitwise_or_function, ptr %2, align 8
  br label %26

22:                                               ; preds = %1
  store ptr @bitwise_and_function, ptr %2, align 8
  br label %26

23:                                               ; preds = %1
  store ptr @bitwise_xor_function, ptr %2, align 8
  br label %26

24:                                               ; preds = %1
  store ptr @boolean_xor_function, ptr %2, align 8
  br label %26

25:                                               ; preds = %1
  unreachable

26:                                               ; preds = %24, %23, %22, %21, %20, %19, %18, %17, %16, %15, %14, %13, %12, %11, %10, %9, %8, %7, %6, %5
  %27 = load ptr, ptr %2, align 8
  ret ptr %27
}