; Function Attrs: mustprogress nofree norecurse nosync nounwind willreturn memory(none) uwtable
define dso_local noundef nonnull ptr @get_binary_op(i32 noundef %0) local_unnamed_addr #10 {
  switch i32 %0, label %21 [
    i32 1, label %22
    i32 2, label %2
    i32 3, label %3
    i32 12, label %4
    i32 4, label %5
    i32 5, label %6
    i32 6, label %7
    i32 7, label %8
    i32 53, label %9
    i32 8, label %9
    i32 16, label %10
    i32 196, label %10
    i32 17, label %11
    i32 18, label %12
    i32 48, label %12
    i32 19, label %13
    i32 20, label %14
    i32 21, label %15
    i32 170, label %16
    i32 9, label %17
    i32 10, label %18
    i32 11, label %19
    i32 15, label %20
  ]

2:                                                ; preds = %1
  br label %22

3:                                                ; preds = %1
  br label %22

4:                                                ; preds = %1
  br label %22

5:                                                ; preds = %1
  br label %22

6:                                                ; preds = %1
  br label %22

7:                                                ; preds = %1
  br label %22

8:                                                ; preds = %1
  br label %22

9:                                                ; preds = %1, %1
  br label %22

10:                                               ; preds = %1, %1
  br label %22

11:                                               ; preds = %1
  br label %22

12:                                               ; preds = %1, %1
  br label %22

13:                                               ; preds = %1
  br label %22

14:                                               ; preds = %1
  br label %22

15:                                               ; preds = %1
  br label %22

16:                                               ; preds = %1
  br label %22

17:                                               ; preds = %1
  br label %22

18:                                               ; preds = %1
  br label %22

19:                                               ; preds = %1
  br label %22

20:                                               ; preds = %1
  br label %22

21:                                               ; preds = %1
  unreachable

22:                                               ; preds = %1, %20, %19, %18, %17, %16, %15, %14, %13, %12, %11, %10, %9, %8, %7, %6, %5, %4, %3, %2
  %.0 = phi ptr [ @boolean_xor_function, %20 ], [ @bitwise_xor_function, %19 ], [ @bitwise_and_function, %18 ], [ @bitwise_or_function, %17 ], [ @compare_function, %16 ], [ @is_smaller_or_equal_function, %15 ], [ @is_smaller_function, %14 ], [ @is_not_equal_function, %13 ], [ @is_equal_function, %12 ], [ @is_not_identical_function, %11 ], [ @is_identical_function, %10 ], [ @concat_function, %9 ], [ @shift_right_function, %8 ], [ @shift_left_function, %7 ], [ @mod_function, %6 ], [ @div_function, %5 ], [ @pow_function, %4 ], [ @mul_function, %3 ], [ @sub_function, %2 ], [ @add_function, %1 ]
  ret ptr %.0
}